target datalayout = "e-m:e-p270:32:32-p271:32:32-p272:64:64-i64:64-i128:128-f80:128-n8:16:32:64-S128"
target triple = "x86_64-pc-linux-gnu"

%class.anon.632 = type { i8 }

@.str.274 = private unnamed_addr constant [7 x i8] c"string\00", align 1
@.str.374 = private unnamed_addr constant [10 x i8] c"important\00", align 1

; Function Attrs: mustprogress nounwind uwtable
define internal noundef signext i16 @"_ZZL20DOCTEST_ANON_FUNC_98vENK3$_0clEPKcm"(ptr noundef nonnull align 1 dereferenceable(1) %0, ptr noundef %1, i64 noundef %2) #1 align 2 {
  %4 = alloca i16, align 2
  %5 = alloca ptr, align 8
  %6 = alloca ptr, align 8
  %7 = alloca i64, align 8
  store ptr %0, ptr %5, align 8
  store ptr %1, ptr %6, align 8
  store i64 %2, ptr %7, align 8
  %8 = load ptr, ptr %6, align 8
  %9 = call i32 @strcmp(ptr noundef %8, ptr noundef @.str.274) #18
  %10 = icmp eq i32 %9, 0
  br i1 %10, label %11, label %12

11:                                               ; preds = %3
  store i16 0, ptr %4, align 2
  br label %18

12:                                               ; preds = %3
  %13 = load ptr, ptr %6, align 8
  %14 = call i32 @strcmp(ptr noundef %13, ptr noundef @.str.374) #18
  %15 = icmp eq i32 %14, 0
  br i1 %15, label %16, label %17

16:                                               ; preds = %12
  store i16 1, ptr %4, align 2
  br label %18

17:                                               ; preds = %12
  store i16 -1, ptr %4, align 2
  br label %18

18:                                               ; preds = %17, %16, %11
  %19 = load i16, ptr %4, align 2
  ret i16 %19
}

; Function Attrs: mustprogress uwtable
define internal noundef signext i16 @"_ZZL20DOCTEST_ANON_FUNC_98vEN3$_08__invokeEPKcm"(ptr noundef %0, i64 noundef %1) #4 align 2 {
  %3 = alloca ptr, align 8
  %4 = alloca i64, align 8
  %5 = alloca %class.anon.632, align 1
  store ptr %0, ptr %3, align 8
  store i64 %1, ptr %4, align 8
  %6 = load ptr, ptr %3, align 8
  %7 = load i64, ptr %4, align 8
  %8 = call noundef signext i16 @"_ZZL20DOCTEST_ANON_FUNC_98vENK3$_0clEPKcm"(ptr noundef nonnull align 1 dereferenceable(1) %5, ptr noundef %6, i64 noundef %7)
  ret i16 %8
}