; Function Attrs: mustprogress nofree nounwind willreturn memory(argmem: read) uwtable
define internal noundef signext range(i16 -1, 2) i16 @"_ZZL20DOCTEST_ANON_FUNC_98vEN3$_08__invokeEPKcm"(ptr nocapture noundef readonly %0, i64 %1) #19 align 2 {
  %3 = tail call i32 @strcmp(ptr noundef nonnull readonly dereferenceable(1) %0, ptr noundef nonnull dereferenceable(7) @.str.274) #33
  %4 = icmp eq i32 %3, 0
  br i1 %4, label %"_ZZL20DOCTEST_ANON_FUNC_98vENK3$_0clEPKcm.exit", label %5

5:                                                ; preds = %2
  %6 = tail call i32 @strcmp(ptr noundef nonnull readonly dereferenceable(1) %0, ptr noundef nonnull dereferenceable(10) @.str.374) #33
  %7 = icmp eq i32 %6, 0
  %..i = select i1 %7, i16 1, i16 -1
  br label %"_ZZL20DOCTEST_ANON_FUNC_98vENK3$_0clEPKcm.exit"

"_ZZL20DOCTEST_ANON_FUNC_98vENK3$_0clEPKcm.exit": ; preds = %2, %5
  %.0.i = phi i16 [ 0, %2 ], [ %..i, %5 ]
  ret i16 %.0.i
}